; Function Attrs: mustprogress nofree norecurse nosync nounwind willreturn memory(argmem: read) uwtable
define noundef nonnull align 4 dereferenceable(4) ptr @_ZNK15SortedTreeNodes14SliceTableData11faceIndicesEPK7OctNodeI12TreeNodeDataE(ptr nocapture noundef nonnull readonly align 8 dereferenceable(72) %0, ptr nocapture noundef readonly %1) local_unnamed_addr #16 align 2 {
  %3 = getelementptr inbounds i8, ptr %0, i64 16
  %4 = load ptr, ptr %3, align 8
  %5 = getelementptr inbounds i8, ptr %1, i64 24
  %6 = load i32, ptr %5, align 8
  %7 = getelementptr inbounds i8, ptr %0, i64 36
  %8 = load i32, ptr %7, align 4
  %9 = sub nsw i32 %6, %8
  %10 = sext i32 %9 to i64
  %11 = getelementptr inbounds %"struct.SortedTreeNodes::_Indices.23", ptr %4, i64 %10
  ret ptr %11
}